; Function Attrs: mustprogress uwtable
define void @_ZN3gmx18TextTableFormatter20setFirstColumnIndentEi(ptr noundef nonnull readonly align 8 captures(none) dereferenceable(8) %0, i32 noundef %1) local_unnamed_addr #1 align 2 {
  %3 = icmp sgt i32 %1, -1
  br i1 %3, label %5, label %4

4:                                                ; preds = %2
  tail call void @_ZN3gmx8internal13assertHandlerEPKcS2_S2_S2_i(ptr noundef nonnull @.str.3, ptr noundef nonnull @.str.4, ptr noundef nonnull @"__PRETTY_FUNCTION__._ZZN3gmx18TextTableFormatter20setFirstColumnIndentEiENK3$_0clEv", ptr noundef nonnull @.str.5, i32 noundef 231) #24
  unreachable

5:                                                ; preds = %2
  %6 = load ptr, ptr %0, align 8, !tbaa !18
  %7 = getelementptr inbounds nuw i8, ptr %6, i64 24
  store i32 %1, ptr %7, align 8, !tbaa !67
  ret void
}